target datalayout = "e-m:e-p270:32:32-p271:32:32-p272:64:64-i64:64-i128:128-f80:128-n8:16:32:64-S128"
target triple = "x86_64-pc-linux-gnu"

%"struct.cv::UMatDataAutoLock" = type { ptr, ptr }

; Function Attrs: mustprogress nounwind uwtable
define void @_ZN2cv16UMatDataAutoLockD2Ev(ptr noundef nonnull align 8 dereferenceable(16) %0) unnamed_addr #0 align 2 personality ptr @__gxx_personality_v0 {
  %2 = alloca ptr, align 8
  store ptr %0, ptr %2, align 8, !tbaa !53
  %3 = load ptr, ptr %2, align 8
  %4 = invoke noundef nonnull align 8 dereferenceable(24) ptr @_ZN2cvL21getUMatDataAutoLockerEv()
          to label %5 unwind label %11

5:                                                ; preds = %1
  %6 = getelementptr inbounds nuw %"struct.cv::UMatDataAutoLock", ptr %3, i32 0, i32 0
  %7 = load ptr, ptr %6, align 8, !tbaa !55
  %8 = getelementptr inbounds nuw %"struct.cv::UMatDataAutoLock", ptr %3, i32 0, i32 1
  %9 = load ptr, ptr %8, align 8, !tbaa !57
  invoke void @_ZN2cv18UMatDataAutoLocker7releaseEPNS_8UMatDataES2_(ptr noundef nonnull align 8 dereferenceable(24) %4, ptr noundef %7, ptr noundef %9)
          to label %10 unwind label %11

10:                                               ; preds = %5
  ret void

11:                                               ; preds = %5, %1
  %12 = landingpad { ptr, i32 }
          catch ptr null
  %13 = extractvalue { ptr, i32 } %12, 0
  call void @__clang_call_terminate(ptr %13) #21
  unreachable
}