; Function Attrs: mustprogress nounwind uwtable
define void @_ZN2cv16UMatDataAutoLockD2Ev(ptr noundef nonnull readonly align 8 captures(none) dereferenceable(16) %0) unnamed_addr #1 align 2 personality ptr @__gxx_personality_v0 {
  %2 = invoke fastcc noundef nonnull align 8 dereferenceable(24) ptr @_ZN2cvL21getUMatDataAutoLockerEv()
          to label %3 unwind label %8

3:                                                ; preds = %1
  %4 = load ptr, ptr %0, align 8, !tbaa !30
  %5 = getelementptr inbounds nuw i8, ptr %0, i64 8
  %6 = load ptr, ptr %5, align 8, !tbaa !32
  invoke void @_ZN2cv18UMatDataAutoLocker7releaseEPNS_8UMatDataES2_(ptr noundef nonnull align 8 dereferenceable(24) %2, ptr noundef %4, ptr noundef %6)
          to label %7 unwind label %8

7:                                                ; preds = %3
  ret void

8:                                                ; preds = %3, %1
  %9 = landingpad { ptr, i32 }
          catch ptr null
  %10 = extractvalue { ptr, i32 } %9, 0
  tail call void @__clang_call_terminate(ptr %10) #27
  unreachable
}